target datalayout = "e-m:e-p270:32:32-p271:32:32-p272:64:64-i64:64-i128:128-f80:128-n8:16:32:64-S128"
target triple = "x86_64-pc-linux-gnu"

%struct.AVCodecContext = type { ptr, i32, i32, ptr, i32, i32, ptr, ptr, ptr, i64, i32, i32, ptr, i32, %struct.AVRational, %struct.AVRational, %struct.AVRational, i32, i32, i32, i32, i32, %struct.AVRational, i32, i32, i32, i32, i32, i32, i32, i32, i32, i32, i32, ptr, ptr, i32, float, float, float, float, float, float, float, float, float, i32, i32, i32, i32, i32, i32, i32, i32, i32, i32, i32, i32, ptr, ptr, ptr, i32, i32, i32, i32, i32, i32, i32, i32, i32, i32, %struct.AVChannelLayout, i32, i32, i32, i32, i32, i32, i32, i32, ptr, i32, i32, i32, float, float, i32, i32, i32, i32, i32, ptr, i64, i64, float, float, i32, i32, ptr, ptr, i32, i32, i32, i32, i32, ptr, ptr, ptr, ptr, i32, i32, [8 x i64], i32, i32, i32, i32, i32, i32, i32, ptr, ptr, i32, i32, i32, i32, i32, i32, i32, i32, i32, i32, ptr, ptr, i32, i32, ptr, ptr, ptr, ptr, i32, i32, i64, i32, i32, i64, ptr, i64, ptr, i32, ptr, i32 }
%struct.AVRational = type { i32, i32 }
%struct.AVChannelLayout = type { i32, i32, %union.anon.0, ptr }
%union.anon.0 = type { i64 }
%struct.MSS3Context = type { ptr, ptr, i32, %struct.RangeCoder, [3 x %struct.BlockTypeContext], [3 x %struct.FillBlockCoder], [3 x %struct.ImageBlockCoder], [3 x %struct.DCTBlockCoder], [3 x %struct.HaarBlockCoder], [64 x i32], [256 x i32] }
%struct.RangeCoder = type { ptr, ptr, i32, i32, i32 }
%struct.BlockTypeContext = type { i32, [5 x %struct.Model] }
%struct.Model = type { [16 x i32], [16 x i32], i32, i32, i32, i32, i32 }
%struct.FillBlockCoder = type { i32, %struct.Model }
%struct.ImageBlockCoder = type { %struct.Model256, %struct.Model256, %struct.Model, [125 x %struct.Model] }
%struct.Model256 = type { [256 x i32], [256 x i32], i32, [68 x i32], i32, i32, i32, i32 }
%struct.DCTBlockCoder = type { ptr, i64, i32, i32, [64 x i16], %struct.Model, %struct.Model2, %struct.Model256 }
%struct.Model2 = type { i32, i32, i32, i32, i32, i32 }
%struct.HaarBlockCoder = type { i32, i32, %struct.Model256, %struct.Model }

; Function Attrs: cold nounwind optsize uwtable
define internal i32 @mss3_decode_end(ptr noundef %0) #0 {
  %2 = alloca ptr, align 8
  %3 = alloca ptr, align 8
  %4 = alloca i32, align 4
  store ptr %0, ptr %2, align 8, !tbaa !4
  call void @llvm.lifetime.start.p0(i64 8, ptr %3) #8
  %5 = load ptr, ptr %2, align 8, !tbaa !4
  %6 = getelementptr inbounds nuw %struct.AVCodecContext, ptr %5, i32 0, i32 6
  %7 = load ptr, ptr %6, align 8, !tbaa !9
  store ptr %7, ptr %3, align 8, !tbaa !29
  call void @llvm.lifetime.start.p0(i64 4, ptr %4) #8
  %8 = load ptr, ptr %3, align 8, !tbaa !29
  %9 = getelementptr inbounds nuw %struct.MSS3Context, ptr %8, i32 0, i32 1
  call void @av_frame_free(ptr noundef %9)
  store i32 0, ptr %4, align 4, !tbaa !38
  br label %10

10:                                               ; preds = %20, %1
  %11 = load i32, ptr %4, align 4, !tbaa !38
  %12 = icmp slt i32 %11, 3
  br i1 %12, label %13, label %23

13:                                               ; preds = %10
  %14 = load ptr, ptr %3, align 8, !tbaa !29
  %15 = getelementptr inbounds nuw %struct.MSS3Context, ptr %14, i32 0, i32 7
  %16 = load i32, ptr %4, align 4, !tbaa !38
  %17 = sext i32 %16 to i64
  %18 = getelementptr inbounds [3 x %struct.DCTBlockCoder], ptr %15, i64 0, i64 %17
  %19 = getelementptr inbounds nuw %struct.DCTBlockCoder, ptr %18, i32 0, i32 0
  call void @av_freep(ptr noundef %19)
  br label %20

20:                                               ; preds = %13
  %21 = load i32, ptr %4, align 4, !tbaa !38
  %22 = add nsw i32 %21, 1
  store i32 %22, ptr %4, align 4, !tbaa !38
  br label %10, !llvm.loop !70

23:                                               ; preds = %10
  call void @llvm.lifetime.end.p0(i64 4, ptr %4) #8
  call void @llvm.lifetime.end.p0(i64 8, ptr %3) #8
  ret i32 0
}